target datalayout = "e-m:e-p270:32:32-p271:32:32-p272:64:64-i64:64-i128:128-f80:128-n8:16:32:64-S128"
target triple = "x86_64-pc-linux-gnu"

@.str.1 = private unnamed_addr constant [13 x i8] c"schemacmds.c\00", align 1
@.str.9 = private unnamed_addr constant [34 x i8] c"cache lookup failed for schema %u\00", align 1
@__func__.AlterSchemaOwner_oid = private unnamed_addr constant [21 x i8] c"AlterSchemaOwner_oid\00", align 1

; Function Attrs: inlinehint nounwind uwtable
define internal i64 @ObjectIdGetDatum(i32 noundef %0) #3 {
  %2 = alloca i32, align 4
  store i32 %0, ptr %2, align 4
  %3 = load i32, ptr %2, align 4
  %4 = zext i32 %3 to i64
  ret i64 %4
}

; Function Attrs: nounwind uwtable
define dso_local void @AlterSchemaOwner_oid(i32 noundef %0, i32 noundef %1) #0 {
  %3 = alloca i32, align 4
  %4 = alloca i32, align 4
  %5 = alloca ptr, align 8
  %6 = alloca ptr, align 8
  store i32 %0, ptr %3, align 4
  store i32 %1, ptr %4, align 4
  call void @llvm.lifetime.start.p0(i64 8, ptr %5) #7
  call void @llvm.lifetime.start.p0(i64 8, ptr %6) #7
  %7 = call ptr @table_open(i32 noundef 2615, i32 noundef 3)
  store ptr %7, ptr %6, align 8
  %8 = load i32, ptr %3, align 4
  %9 = call i64 @ObjectIdGetDatum(i32 noundef %8)
  %10 = call ptr @SearchSysCache1(i32 noundef 38, i64 noundef %9)
  store ptr %10, ptr %5, align 8
  %11 = load ptr, ptr %5, align 8
  %12 = icmp ne ptr %11, null
  br i1 %12, label %25, label %13

13:                                               ; preds = %2
  br label %14

14:                                               ; preds = %13
  br i1 true, label %15, label %17

15:                                               ; preds = %14
  %16 = call zeroext i1 @errstart_cold(i32 noundef 21, ptr noundef null) #8
  br i1 %16, label %19, label %22

17:                                               ; preds = %14
  %18 = call zeroext i1 @errstart(i32 noundef 21, ptr noundef null)
  br i1 %18, label %19, label %22

19:                                               ; preds = %17, %15
  %20 = load i32, ptr %3, align 4
  %21 = call i32 (ptr, ...) @errmsg_internal(ptr noundef @.str.9, i32 noundef %20)
  call void @errfinish(ptr noundef @.str.1, i32 noundef 316, ptr noundef @__func__.AlterSchemaOwner_oid)
  br label %22

22:                                               ; preds = %19, %17, %15
  unreachable

23:                                               ; No predecessors!
  br label %24

24:                                               ; preds = %23
  br label %25

25:                                               ; preds = %24, %2
  %26 = load ptr, ptr %5, align 8
  %27 = load ptr, ptr %6, align 8
  %28 = load i32, ptr %4, align 4
  call void @AlterSchemaOwner_internal(ptr noundef %26, ptr noundef %27, i32 noundef %28)
  %29 = load ptr, ptr %5, align 8
  call void @ReleaseSysCache(ptr noundef %29)
  %30 = load ptr, ptr %6, align 8
  call void @table_close(ptr noundef %30, i32 noundef 3)
  call void @llvm.lifetime.end.p0(i64 8, ptr %6) #7
  call void @llvm.lifetime.end.p0(i64 8, ptr %5) #7
  ret void
}