; Function Attrs: nounwind uwtable
define dso_local void @AlterSchemaOwner_oid(i32 noundef %0, i32 noundef %1) local_unnamed_addr #0 {
  %3 = tail call ptr @table_open(i32 noundef 2615, i32 noundef 3) #5
  %4 = zext i32 %0 to i64
  %5 = tail call ptr @SearchSysCache1(i32 noundef 38, i64 noundef %4) #5
  %.not = icmp eq ptr %5, null
  br i1 %.not, label %6, label %9

6:                                                ; preds = %2
  %7 = tail call zeroext i1 @errstart_cold(i32 noundef 21, ptr noundef null) #6
  tail call void @llvm.assume(i1 %7)
  %8 = tail call i32 (ptr, ...) @errmsg_internal(ptr noundef nonnull @.str.9, i32 noundef %0) #5
  tail call void @errfinish(ptr noundef nonnull @.str.1, i32 noundef 316, ptr noundef nonnull @__func__.AlterSchemaOwner_oid) #5
  unreachable

9:                                                ; preds = %2
  tail call fastcc void @AlterSchemaOwner_internal(ptr noundef %5, ptr noundef %3, i32 noundef %1)
  tail call void @ReleaseSysCache(ptr noundef nonnull %5) #5
  tail call void @table_close(ptr noundef %3, i32 noundef 3) #5
  ret void
}